target datalayout = "e-m:e-p270:32:32-p271:32:32-p272:64:64-i64:64-i128:128-f80:128-n8:16:32:64-S128"
target triple = "x86_64-unknown-linux-gnu"

%class.app = type { %class.expr, ptr, i32, [0 x ptr] }
%class.expr = type { %class.ast }
%class.ast = type { i32, i24, i32, i32 }
%class.ref_vector.47 = type { %class.ref_vector_core.48 }
%class.ref_vector_core.48 = type { %class.ref_manager_wrapper.49, %class.ptr_vector.50 }
%class.ref_manager_wrapper.49 = type { ptr }
%class.ptr_vector.50 = type { %class.vector.51 }
%class.vector.51 = type { ptr }
%class.svector.24 = type { %class.vector.25 }
%class.vector.25 = type { ptr }
%"class.datalog::variable_intersection" = type { %class.svector.24, %class.svector.24, %class.svector.24, %class.ref_vector.47 }
%"class.ref_vector<app, ast_manager>::element_ref" = type { ptr, ptr }

; Function Attrs: mustprogress nounwind uwtable
define linkonce_odr hidden noundef nonnull align 4 dereferenceable(4) ptr @_ZNK6vectorIjLb0EjEixEj(ptr noundef nonnull align 8 dereferenceable(8) %this, i32 noundef %idx) #5 comdat align 2 {
entry:
  %this.addr = alloca ptr, align 8
  %idx.addr = alloca i32, align 4
  store ptr %this, ptr %this.addr, align 8
  store i32 %idx, ptr %idx.addr, align 4
  %this1 = load ptr, ptr %this.addr, align 8
  %m_data = getelementptr inbounds %class.vector.25, ptr %this1, i32 0, i32 0
  %0 = load ptr, ptr %m_data, align 8
  %1 = load i32, ptr %idx.addr, align 4
  %idxprom = zext i32 %1 to i64
  %arrayidx = getelementptr inbounds i32, ptr %0, i64 %idxprom
  ret ptr %arrayidx
}

; Function Attrs: mustprogress nounwind uwtable
define linkonce_odr hidden void @_ZN10ref_vectorI3app11ast_managerE11element_refC2ERPS0_RS1_(ptr noundef nonnull align 8 dereferenceable(16) %this, ptr noundef nonnull align 8 dereferenceable(8) %ref, ptr noundef nonnull align 8 dereferenceable(976) %m) unnamed_addr #5 comdat align 2 {
entry:
  %this.addr = alloca ptr, align 8
  %ref.addr = alloca ptr, align 8
  %m.addr = alloca ptr, align 8
  store ptr %this, ptr %this.addr, align 8
  store ptr %ref, ptr %ref.addr, align 8
  store ptr %m, ptr %m.addr, align 8
  %this1 = load ptr, ptr %this.addr, align 8
  %m_ref = getelementptr inbounds %"class.ref_vector<app, ast_manager>::element_ref", ptr %this1, i32 0, i32 0
  %0 = load ptr, ptr %ref.addr, align 8
  store ptr %0, ptr %m_ref, align 8
  %m_manager = getelementptr inbounds %"class.ref_vector<app, ast_manager>::element_ref", ptr %this1, i32 0, i32 1
  %1 = load ptr, ptr %m.addr, align 8
  store ptr %1, ptr %m_manager, align 8
  ret void
}

; Function Attrs: mustprogress nounwind uwtable
define linkonce_odr hidden noundef nonnull align 8 dereferenceable(8) ptr @_ZN6vectorIP3appLb0EjEixEj(ptr noundef nonnull align 8 dereferenceable(8) %this, i32 noundef %idx) #5 comdat align 2 {
entry:
  %this.addr = alloca ptr, align 8
  %idx.addr = alloca i32, align 4
  store ptr %this, ptr %this.addr, align 8
  store i32 %idx, ptr %idx.addr, align 4
  %this1 = load ptr, ptr %this.addr, align 8
  %m_data = getelementptr inbounds %class.vector.51, ptr %this1, i32 0, i32 0
  %0 = load ptr, ptr %m_data, align 8
  %1 = load i32, ptr %idx.addr, align 4
  %idxprom = zext i32 %1 to i64
  %arrayidx = getelementptr inbounds ptr, ptr %0, i64 %idxprom
  ret ptr %arrayidx
}

; Function Attrs: mustprogress uwtable
define linkonce_odr hidden void @_ZNK7datalog21variable_intersection3getEjRjS1_(ptr noundef nonnull align 8 dereferenceable(40) %this, i32 noundef %i, ptr noundef nonnull align 4 dereferenceable(4) %index1, ptr noundef nonnull align 4 dereferenceable(4) %index2) #4 comdat align 2 {
entry:
  %this.addr = alloca ptr, align 8
  %i.addr = alloca i32, align 4
  %index1.addr = alloca ptr, align 8
  %index2.addr = alloca ptr, align 8
  store ptr %this, ptr %this.addr, align 8
  store i32 %i, ptr %i.addr, align 4
  store ptr %index1, ptr %index1.addr, align 8
  store ptr %index2, ptr %index2.addr, align 8
  %this1 = load ptr, ptr %this.addr, align 8
  %m_args1 = getelementptr inbounds %"class.datalog::variable_intersection", ptr %this1, i32 0, i32 0
  %0 = load i32, ptr %i.addr, align 4
  %call = call noundef nonnull align 4 dereferenceable(4) ptr @_ZNK6vectorIjLb0EjEixEj(ptr noundef nonnull align 8 dereferenceable(8) %m_args1, i32 noundef %0)
  %1 = load i32, ptr %call, align 4
  %2 = load ptr, ptr %index1.addr, align 8
  store i32 %1, ptr %2, align 4
  %m_args2 = getelementptr inbounds %"class.datalog::variable_intersection", ptr %this1, i32 0, i32 1
  %3 = load i32, ptr %i.addr, align 4
  %call2 = call noundef nonnull align 4 dereferenceable(4) ptr @_ZNK6vectorIjLb0EjEixEj(ptr noundef nonnull align 8 dereferenceable(8) %m_args2, i32 noundef %3)
  %4 = load i32, ptr %call2, align 4
  %5 = load ptr, ptr %index2.addr, align 8
  store i32 %4, ptr %5, align 4
  ret void
}

; Function Attrs: mustprogress uwtable
define linkonce_odr hidden noundef i32 @_ZNK7datalog21variable_intersection4sizeEv(ptr noundef nonnull align 8 dereferenceable(40) %this) #4 comdat align 2 {
entry:
  %this.addr = alloca ptr, align 8
  store ptr %this, ptr %this.addr, align 8
  %this1 = load ptr, ptr %this.addr, align 8
  %m_args1 = getelementptr inbounds %"class.datalog::variable_intersection", ptr %this1, i32 0, i32 0
  %call = call noundef i32 @_ZNK6vectorIjLb0EjE4sizeEv(ptr noundef nonnull align 8 dereferenceable(8) %m_args1)
  ret i32 %call
}

; Function Attrs: mustprogress nounwind uwtable
define hidden noundef zeroext i1 @_ZN7datalog21variable_intersection12values_matchEPK4exprS3_(ptr noundef nonnull align 8 dereferenceable(40) %this, ptr noundef %v1, ptr noundef %v2) #5 align 2 {
entry:
  %this.addr = alloca ptr, align 8
  %v1.addr = alloca ptr, align 8
  %v2.addr = alloca ptr, align 8
  store ptr %this, ptr %this.addr, align 8
  store ptr %v1, ptr %v1.addr, align 8
  store ptr %v2, ptr %v2.addr, align 8
  %0 = load ptr, ptr %v1.addr, align 8
  %1 = load ptr, ptr %v2.addr, align 8
  %cmp = icmp eq ptr %0, %1
  ret i1 %cmp
}

; Function Attrs: mustprogress nounwind uwtable
define linkonce_odr hidden noundef ptr @_ZNK10ref_vectorI3app11ast_managerE11element_ref3getEv(ptr noundef nonnull align 8 dereferenceable(16) %this) #5 comdat align 2 {
entry:
  %this.addr = alloca ptr, align 8
  store ptr %this, ptr %this.addr, align 8
  %this1 = load ptr, ptr %this.addr, align 8
  %m_ref = getelementptr inbounds %"class.ref_vector<app, ast_manager>::element_ref", ptr %this1, i32 0, i32 0
  %0 = load ptr, ptr %m_ref, align 8
  %1 = load ptr, ptr %0, align 8
  ret ptr %1
}

; Function Attrs: mustprogress uwtable
define linkonce_odr hidden { ptr, ptr } @_ZN10ref_vectorI3app11ast_managerEixEj(ptr noundef nonnull align 8 dereferenceable(16) %this, i32 noundef %idx) #4 comdat align 2 {
entry:
  %retval = alloca %"class.ref_vector<app, ast_manager>::element_ref", align 8
  %this.addr = alloca ptr, align 8
  %idx.addr = alloca i32, align 4
  store ptr %this, ptr %this.addr, align 8
  store i32 %idx, ptr %idx.addr, align 4
  %this1 = load ptr, ptr %this.addr, align 8
  %m_nodes = getelementptr inbounds %class.ref_vector_core.48, ptr %this1, i32 0, i32 1
  %0 = load i32, ptr %idx.addr, align 4
  %call = call noundef nonnull align 8 dereferenceable(8) ptr @_ZN6vectorIP3appLb0EjEixEj(ptr noundef nonnull align 8 dereferenceable(8) %m_nodes, i32 noundef %0)
  %m_manager = getelementptr inbounds %class.ref_manager_wrapper.49, ptr %this1, i32 0, i32 0
  %1 = load ptr, ptr %m_manager, align 8
  call void @_ZN10ref_vectorI3app11ast_managerE11element_refC2ERPS0_RS1_(ptr noundef nonnull align 8 dereferenceable(16) %retval, ptr noundef nonnull align 8 dereferenceable(8) %call, ptr noundef nonnull align 8 dereferenceable(976) %1)
  %2 = load { ptr, ptr }, ptr %retval, align 8
  ret { ptr, ptr } %2
}

; Function Attrs: mustprogress nounwind uwtable
define linkonce_odr hidden noundef ptr @_ZNK3app7get_argEj(ptr noundef nonnull align 8 dereferenceable(32) %this, i32 noundef %idx) #5 comdat align 2 {
entry:
  %this.addr = alloca ptr, align 8
  %idx.addr = alloca i32, align 4
  store ptr %this, ptr %this.addr, align 8
  store i32 %idx, ptr %idx.addr, align 4
  %this1 = load ptr, ptr %this.addr, align 8
  %m_args = getelementptr inbounds %class.app, ptr %this1, i32 0, i32 3
  %0 = load i32, ptr %idx.addr, align 4
  %idxprom = zext i32 %0 to i64
  %arrayidx = getelementptr inbounds [0 x ptr], ptr %m_args, i64 0, i64 %idxprom
  %1 = load ptr, ptr %arrayidx, align 8
  ret ptr %1
}

; Function Attrs: mustprogress nounwind uwtable
define linkonce_odr hidden noundef nonnull align 4 dereferenceable(4) ptr @_ZN6vectorIjLb0EjEixEj(ptr noundef nonnull align 8 dereferenceable(8) %this, i32 noundef %idx) #5 comdat align 2 {
entry:
  %this.addr = alloca ptr, align 8
  %idx.addr = alloca i32, align 4
  store ptr %this, ptr %this.addr, align 8
  store i32 %idx, ptr %idx.addr, align 4
  %this1 = load ptr, ptr %this.addr, align 8
  %m_data = getelementptr inbounds %class.vector.25, ptr %this1, i32 0, i32 0
  %0 = load ptr, ptr %m_data, align 8
  %1 = load i32, ptr %idx.addr, align 4
  %idxprom = zext i32 %1 to i64
  %arrayidx = getelementptr inbounds i32, ptr %0, i64 %idxprom
  ret ptr %arrayidx
}

; Function Attrs: mustprogress nounwind uwtable
define linkonce_odr hidden noundef i32 @_ZNK6vectorIjLb0EjE4sizeEv(ptr noundef nonnull align 8 dereferenceable(8) %this) #5 comdat align 2 {
entry:
  %retval = alloca i32, align 4
  %this.addr = alloca ptr, align 8
  store ptr %this, ptr %this.addr, align 8
  %this1 = load ptr, ptr %this.addr, align 8
  %m_data = getelementptr inbounds %class.vector.25, ptr %this1, i32 0, i32 0
  %0 = load ptr, ptr %m_data, align 8
  %cmp = icmp eq ptr %0, null
  br i1 %cmp, label %if.then, label %if.end

if.then:                                          ; preds = %entry
  store i32 0, ptr %retval, align 4
  br label %return

if.end:                                           ; preds = %entry
  %m_data2 = getelementptr inbounds %class.vector.25, ptr %this1, i32 0, i32 0
  %1 = load ptr, ptr %m_data2, align 8
  %arrayidx = getelementptr inbounds i32, ptr %1, i64 -1
  %2 = load i32, ptr %arrayidx, align 4
  store i32 %2, ptr %retval, align 4
  br label %return

return:                                           ; preds = %if.end, %if.then
  %3 = load i32, ptr %retval, align 4
  ret i32 %3
}

; Function Attrs: mustprogress uwtable
define hidden noundef zeroext i1 @_ZN7datalog21variable_intersection10args_matchEPK3appS3_(ptr noundef nonnull align 8 dereferenceable(40) %this, ptr noundef %f1, ptr noundef %f2) #4 align 2 {
entry:
  %retval = alloca i1, align 1
  %this.addr = alloca ptr, align 8
  %f1.addr = alloca ptr, align 8
  %f2.addr = alloca ptr, align 8
  %n = alloca i32, align 4
  %i = alloca i32, align 4
  %f1_index = alloca i32, align 4
  %f2_index = alloca i32, align 4
  store ptr %this, ptr %this.addr, align 8
  store ptr %f1, ptr %f1.addr, align 8
  store ptr %f2, ptr %f2.addr, align 8
  %this1 = load ptr, ptr %this.addr, align 8
  %call = call noundef i32 @_ZNK7datalog21variable_intersection4sizeEv(ptr noundef nonnull align 8 dereferenceable(40) %this1)
  store i32 %call, ptr %n, align 4
  store i32 0, ptr %i, align 4
  br label %for.cond

for.cond:                                         ; preds = %for.inc, %entry
  %0 = load i32, ptr %i, align 4
  %1 = load i32, ptr %n, align 4
  %cmp = icmp ult i32 %0, %1
  br i1 %cmp, label %for.body, label %for.end

for.body:                                         ; preds = %for.cond
  %2 = load i32, ptr %i, align 4
  call void @_ZNK7datalog21variable_intersection3getEjRjS1_(ptr noundef nonnull align 8 dereferenceable(40) %this1, i32 noundef %2, ptr noundef nonnull align 4 dereferenceable(4) %f1_index, ptr noundef nonnull align 4 dereferenceable(4) %f2_index)
  %3 = load ptr, ptr %f1.addr, align 8
  %4 = load i32, ptr %f1_index, align 4
  %call2 = call noundef ptr @_ZNK3app7get_argEj(ptr noundef nonnull align 8 dereferenceable(32) %3, i32 noundef %4)
  %5 = load ptr, ptr %f2.addr, align 8
  %6 = load i32, ptr %f2_index, align 4
  %call3 = call noundef ptr @_ZNK3app7get_argEj(ptr noundef nonnull align 8 dereferenceable(32) %5, i32 noundef %6)
  %call4 = call noundef zeroext i1 @_ZN7datalog21variable_intersection12values_matchEPK4exprS3_(ptr noundef nonnull align 8 dereferenceable(40) %this1, ptr noundef %call2, ptr noundef %call3)
  br i1 %call4, label %if.end, label %if.then

if.then:                                          ; preds = %for.body
  store i1 false, ptr %retval, align 1
  br label %return

if.end:                                           ; preds = %for.body
  br label %for.inc

for.inc:                                          ; preds = %if.end
  %7 = load i32, ptr %i, align 4
  %inc = add i32 %7, 1
  store i32 %inc, ptr %i, align 4
  br label %for.cond, !llvm.loop !12

for.end:                                          ; preds = %for.cond
  store i1 true, ptr %retval, align 1
  br label %return

return:                                           ; preds = %for.end, %if.then
  %8 = load i1, ptr %retval, align 1
  ret i1 %8
}

; Function Attrs: mustprogress uwtable
define hidden noundef zeroext i1 @_ZN7datalog21variable_intersection15args_self_matchEPK3app(ptr noundef nonnull align 8 dereferenceable(40) %this, ptr noundef %f) #4 align 2 {
entry:
  %retval = alloca i1, align 1
  %this.addr = alloca ptr, align 8
  %f.addr = alloca ptr, align 8
  %n = alloca i32, align 4
  %i = alloca i32, align 4
  %f_index = alloca i32, align 4
  %ref.tmp = alloca %"class.ref_vector<app, ast_manager>::element_ref", align 8
  store ptr %this, ptr %this.addr, align 8
  store ptr %f, ptr %f.addr, align 8
  %this1 = load ptr, ptr %this.addr, align 8
  %0 = load ptr, ptr %f.addr, align 8
  %1 = load ptr, ptr %f.addr, align 8
  %call = call noundef zeroext i1 @_ZN7datalog21variable_intersection10args_matchEPK3appS3_(ptr noundef nonnull align 8 dereferenceable(40) %this1, ptr noundef %0, ptr noundef %1)
  br i1 %call, label %if.end, label %if.then

if.then:                                          ; preds = %entry
  store i1 false, ptr %retval, align 1
  br label %return

if.end:                                           ; preds = %entry
  %m_const_indexes = getelementptr inbounds %"class.datalog::variable_intersection", ptr %this1, i32 0, i32 2
  %call2 = call noundef i32 @_ZNK6vectorIjLb0EjE4sizeEv(ptr noundef nonnull align 8 dereferenceable(8) %m_const_indexes)
  store i32 %call2, ptr %n, align 4
  store i32 0, ptr %i, align 4
  br label %for.cond

for.cond:                                         ; preds = %for.inc, %if.end
  %2 = load i32, ptr %i, align 4
  %3 = load i32, ptr %n, align 4
  %cmp = icmp ult i32 %2, %3
  br i1 %cmp, label %for.body, label %for.end

for.body:                                         ; preds = %for.cond
  %m_const_indexes3 = getelementptr inbounds %"class.datalog::variable_intersection", ptr %this1, i32 0, i32 2
  %4 = load i32, ptr %i, align 4
  %call4 = call noundef nonnull align 4 dereferenceable(4) ptr @_ZN6vectorIjLb0EjEixEj(ptr noundef nonnull align 8 dereferenceable(8) %m_const_indexes3, i32 noundef %4)
  %5 = load i32, ptr %call4, align 4
  store i32 %5, ptr %f_index, align 4
  %6 = load ptr, ptr %f.addr, align 8
  %7 = load i32, ptr %f_index, align 4
  %call5 = call noundef ptr @_ZNK3app7get_argEj(ptr noundef nonnull align 8 dereferenceable(32) %6, i32 noundef %7)
  %m_consts = getelementptr inbounds %"class.datalog::variable_intersection", ptr %this1, i32 0, i32 3
  %8 = load i32, ptr %i, align 4
  %call6 = call { ptr, ptr } @_ZN10ref_vectorI3app11ast_managerEixEj(ptr noundef nonnull align 8 dereferenceable(16) %m_consts, i32 noundef %8)
  %9 = getelementptr inbounds { ptr, ptr }, ptr %ref.tmp, i32 0, i32 0
  %10 = extractvalue { ptr, ptr } %call6, 0
  store ptr %10, ptr %9, align 8
  %11 = getelementptr inbounds { ptr, ptr }, ptr %ref.tmp, i32 0, i32 1
  %12 = extractvalue { ptr, ptr } %call6, 1
  store ptr %12, ptr %11, align 8
  %call7 = call noundef ptr @_ZNK10ref_vectorI3app11ast_managerE11element_ref3getEv(ptr noundef nonnull align 8 dereferenceable(16) %ref.tmp)
  %call8 = call noundef zeroext i1 @_ZN7datalog21variable_intersection12values_matchEPK4exprS3_(ptr noundef nonnull align 8 dereferenceable(40) %this1, ptr noundef %call5, ptr noundef %call7)
  %lnot = xor i1 %call8, true
  br i1 %lnot, label %if.then9, label %if.end10

if.then9:                                         ; preds = %for.body
  store i1 false, ptr %retval, align 1
  br label %return

if.end10:                                         ; preds = %for.body
  br label %for.inc

for.inc:                                          ; preds = %if.end10
  %13 = load i32, ptr %i, align 4
  %inc = add i32 %13, 1
  store i32 %inc, ptr %i, align 4
  br label %for.cond, !llvm.loop !13

for.end:                                          ; preds = %for.cond
  store i1 true, ptr %retval, align 1
  br label %return

return:                                           ; preds = %for.end, %if.then9, %if.then
  %14 = load i1, ptr %retval, align 1
  ret i1 %14
}