; Function Attrs: mustprogress nofree norecurse nosync nounwind willreturn memory(read, inaccessiblemem: none) uwtable
define hidden noundef zeroext i1 @_ZN7datalog21variable_intersection15args_self_matchEPK3app(ptr nocapture noundef nonnull readonly align 8 dereferenceable(40) %this, ptr nocapture noundef readonly %f) local_unnamed_addr #6 align 2 {
entry:
  %0 = load ptr, ptr %this, align 8
  %cmp.i.i.i = icmp eq ptr %0, null
  br i1 %cmp.i.i.i, label %if.end, label %_ZNK7datalog21variable_intersection4sizeEv.exit.i

_ZNK7datalog21variable_intersection4sizeEv.exit.i: ; preds = %entry
  %arrayidx.i.i.i = getelementptr inbounds i8, ptr %0, i64 -4
  %1 = load i32, ptr %arrayidx.i.i.i, align 4
  %cmp7.i = icmp eq i32 %1, 0
  br i1 %cmp7.i, label %if.end, label %for.body.lr.ph.i

for.body.lr.ph.i:                                 ; preds = %_ZNK7datalog21variable_intersection4sizeEv.exit.i
  %m_args2.i.i = getelementptr inbounds i8, ptr %this, i64 8
  %2 = load ptr, ptr %m_args2.i.i, align 8
  %m_args.i.i = getelementptr inbounds i8, ptr %f, i64 32
  %3 = zext i32 %1 to i64
  %4 = load i32, ptr %0, align 4
  %5 = load i32, ptr %2, align 4
  %idxprom.i.i14 = zext i32 %4 to i64
  %arrayidx.i.i15 = getelementptr inbounds [0 x ptr], ptr %m_args.i.i, i64 0, i64 %idxprom.i.i14
  %6 = load ptr, ptr %arrayidx.i.i15, align 8
  %idxprom.i5.i16 = zext i32 %5 to i64
  %arrayidx.i6.i17 = getelementptr inbounds [0 x ptr], ptr %m_args.i.i, i64 0, i64 %idxprom.i5.i16
  %7 = load ptr, ptr %arrayidx.i6.i17, align 8
  %cmp.i.i18 = icmp eq ptr %6, %7
  br i1 %cmp.i.i18, label %for.cond.i, label %return

for.cond.i:                                       ; preds = %for.body.lr.ph.i, %for.body.i
  %indvars.iv.i19 = phi i64 [ %indvars.iv.next.i, %for.body.i ], [ 0, %for.body.lr.ph.i ]
  %indvars.iv.next.i = add nuw nsw i64 %indvars.iv.i19, 1
  %exitcond.i = icmp eq i64 %indvars.iv.next.i, %3
  br i1 %exitcond.i, label %_ZN7datalog21variable_intersection10args_matchEPK3appS3_.exit, label %for.body.i, !llvm.loop !18

for.body.i:                                       ; preds = %for.cond.i
  %arrayidx.i.i3.i = getelementptr inbounds i32, ptr %0, i64 %indvars.iv.next.i
  %8 = load i32, ptr %arrayidx.i.i3.i, align 4
  %arrayidx.i3.i.i = getelementptr inbounds i32, ptr %2, i64 %indvars.iv.next.i
  %9 = load i32, ptr %arrayidx.i3.i.i, align 4
  %idxprom.i.i = zext i32 %8 to i64
  %arrayidx.i.i = getelementptr inbounds [0 x ptr], ptr %m_args.i.i, i64 0, i64 %idxprom.i.i
  %10 = load ptr, ptr %arrayidx.i.i, align 8
  %idxprom.i5.i = zext i32 %9 to i64
  %arrayidx.i6.i = getelementptr inbounds [0 x ptr], ptr %m_args.i.i, i64 0, i64 %idxprom.i5.i
  %11 = load ptr, ptr %arrayidx.i6.i, align 8
  %cmp.i.i = icmp eq ptr %10, %11
  br i1 %cmp.i.i, label %for.cond.i, label %_ZN7datalog21variable_intersection10args_matchEPK3appS3_.exit, !llvm.loop !18

_ZN7datalog21variable_intersection10args_matchEPK3appS3_.exit: ; preds = %for.body.i, %for.cond.i
  %cmp.i.not.le = icmp ult i64 %indvars.iv.next.i, %3
  br i1 %cmp.i.not.le, label %return, label %if.end

if.end:                                           ; preds = %entry, %_ZNK7datalog21variable_intersection4sizeEv.exit.i, %_ZN7datalog21variable_intersection10args_matchEPK3appS3_.exit
  %m_const_indexes = getelementptr inbounds i8, ptr %this, i64 16
  %12 = load ptr, ptr %m_const_indexes, align 8
  %cmp.i6 = icmp eq ptr %12, null
  br i1 %cmp.i6, label %return, label %_ZNK6vectorIjLb0EjE4sizeEv.exit

_ZNK6vectorIjLb0EjE4sizeEv.exit:                  ; preds = %if.end
  %arrayidx.i = getelementptr inbounds i8, ptr %12, i64 -4
  %13 = load i32, ptr %arrayidx.i, align 4
  %cmp21.not = icmp eq i32 %13, 0
  br i1 %cmp21.not, label %return, label %for.body.lr.ph

for.body.lr.ph:                                   ; preds = %_ZNK6vectorIjLb0EjE4sizeEv.exit
  %m_args.i = getelementptr inbounds i8, ptr %f, i64 32
  %m_nodes.i = getelementptr inbounds i8, ptr %this, i64 32
  %14 = load ptr, ptr %m_nodes.i, align 8
  %wide.trip.count = zext i32 %13 to i64
  br label %for.body

for.body:                                         ; preds = %for.body, %for.body.lr.ph
  %indvars.iv = phi i64 [ 0, %for.body.lr.ph ], [ %indvars.iv.next, %for.body ]
  %arrayidx.i7 = getelementptr inbounds i32, ptr %12, i64 %indvars.iv
  %15 = load i32, ptr %arrayidx.i7, align 4
  %idxprom.i8 = zext i32 %15 to i64
  %arrayidx.i9 = getelementptr inbounds [0 x ptr], ptr %m_args.i, i64 0, i64 %idxprom.i8
  %16 = load ptr, ptr %arrayidx.i9, align 8
  %arrayidx.i.i11 = getelementptr inbounds ptr, ptr %14, i64 %indvars.iv
  %17 = load ptr, ptr %arrayidx.i.i11, align 8
  %cmp.i12 = icmp eq ptr %16, %17
  %indvars.iv.next = add nuw nsw i64 %indvars.iv, 1
  %exitcond.not = icmp ne i64 %indvars.iv.next, %wide.trip.count
  %or.cond.not = select i1 %cmp.i12, i1 %exitcond.not, i1 false
  br i1 %or.cond.not, label %for.body, label %return, !llvm.loop !19

return:                                           ; preds = %for.body, %if.end, %for.body.lr.ph.i, %_ZNK6vectorIjLb0EjE4sizeEv.exit, %_ZN7datalog21variable_intersection10args_matchEPK3appS3_.exit
  %retval.0 = phi i1 [ false, %_ZN7datalog21variable_intersection10args_matchEPK3appS3_.exit ], [ true, %_ZNK6vectorIjLb0EjE4sizeEv.exit ], [ false, %for.body.lr.ph.i ], [ true, %if.end ], [ %cmp.i12, %for.body ]
  ret i1 %retval.0
}